target datalayout = "e-m:e-p270:32:32-p271:32:32-p272:64:64-i64:64-i128:128-f80:128-n8:16:32:64-S128"
target triple = "x86_64-unknown-linux-gnu"

%struct.QemuEvent = type { i32, i8 }
%struct.QemuThread = type { i64 }
%struct.QemuSemaphore = type { %struct.QemuMutex, %struct.QemuCond, i32 }
%struct.QemuMutex = type { %union.pthread_mutex_t, i8 }
%union.pthread_mutex_t = type { %struct.__pthread_mutex_s }
%struct.__pthread_mutex_s = type { i32, i32, i32, i32, i32, i16, i16, %struct.__pthread_internal_list }
%struct.__pthread_internal_list = type { ptr, ptr }
%struct.QemuCond = type { %union.pthread_cond_t, i8 }
%union.pthread_cond_t = type { %struct.__pthread_cond_s }
%struct.__pthread_cond_s = type { %union.__atomic_wide_counter, %union.__atomic_wide_counter, [2 x i32], [2 x i32], i32, i32, [2 x i32] }
%union.__atomic_wide_counter = type { i64 }
%struct.MigrationState = type { %struct.DeviceState, %struct.QemuThread, ptr, ptr, ptr, ptr, %struct.QemuSemaphore, ptr, %struct.QemuMutex, %struct.QemuSemaphore, i64, double, i64, i64, i64, %struct.MigrationParameters, i32, %struct.anon.2, double, i64, i64, i64, i64, i64, [23 x i8], i64, i32, i8, i8, i8, i8, %struct.QemuSemaphore, %struct.QemuSemaphore, %struct.QemuSemaphore, %struct.QemuEvent, i64, ptr, ptr, %struct.QemuMutex, i8, i8, i8, i8, %struct.QemuSemaphore, i8, i8, i8, i8, ptr, ptr, i8, i8 }
%struct.DeviceState = type { %struct.Object, ptr, ptr, i8, i8, i64, ptr, i32, i8, ptr, %struct.NamedGPIOListHead, %struct.NamedClockListHead, %struct.BusStateHead, i32, i32, i32, %struct.ResettableState, ptr, %struct.MemReentrancyGuard }
%struct.Object = type { ptr, ptr, ptr, i32, ptr }
%struct.NamedGPIOListHead = type { ptr }
%struct.NamedClockListHead = type { ptr }
%struct.BusStateHead = type { ptr }
%struct.ResettableState = type { i32, i8, i8 }
%struct.MemReentrancyGuard = type { i8 }
%struct.MigrationParameters = type { i8, i64, i8, i64, i8, i64, i8, i64, i8, i8, i8, i8, i8, i8, i8, i8, i8, i8, i8, i8, i8, i8, i8, i8, ptr, ptr, ptr, i8, i64, i8, i64, i8, i64, i8, i32, i8, i8, i8, i8, i8, i64, i8, i64, i8, i8, i8, i32, i8, i8, i8, i8, i8, ptr, i8, i64, i8, i64, i8, i32 }
%struct.anon.2 = type { ptr, %struct.QemuThread, i8, %struct.QemuSemaphore, %struct.QemuSemaphore }
%struct.ErrorPropagator = type { ptr, ptr }

@current_migration = internal global ptr null, align 8
@.str.2 = private unnamed_addr constant [30 x i8] c"../qemu/migration/migration.c\00", align 1
@error_fatal = external global ptr, align 8
@__func__.migration_is_idle = private unnamed_addr constant [18 x i8] c"migration_is_idle\00", align 1
@migration_blockers = internal global [2 x ptr] zeroinitializer, align 16
@.str.77 = private unnamed_addr constant [69 x i8] c"disallowing migration blocker (migration/snapshot in progress) for: \00", align 1

; Function Attrs: nounwind sspstrong uwtable
define internal void @error_propagator_cleanup(ptr noundef %prop) #0 {
entry:
  %prop.addr = alloca ptr, align 8
  store ptr %prop, ptr %prop.addr, align 8
  %0 = load ptr, ptr %prop.addr, align 8
  %errp = getelementptr inbounds %struct.ErrorPropagator, ptr %0, i32 0, i32 1
  %1 = load ptr, ptr %errp, align 8
  %2 = load ptr, ptr %prop.addr, align 8
  %local_err = getelementptr inbounds %struct.ErrorPropagator, ptr %2, i32 0, i32 0
  %3 = load ptr, ptr %local_err, align 8
  call void @error_propagate(ptr noundef %1, ptr noundef %3)
  ret void
}

; Function Attrs: nounwind sspstrong uwtable
define internal void @glib_auto_cleanup_ErrorPropagator(ptr noundef %_ptr) #0 {
entry:
  %_ptr.addr = alloca ptr, align 8
  store ptr %_ptr, ptr %_ptr.addr, align 8
  %0 = load ptr, ptr %_ptr.addr, align 8
  call void @error_propagator_cleanup(ptr noundef %0)
  ret void
}

; Function Attrs: nounwind sspstrong uwtable
define dso_local zeroext i1 @migration_is_idle() #0 {
entry:
  %retval = alloca i1, align 1
  %s = alloca ptr, align 8
  %0 = load ptr, ptr @current_migration, align 8
  store ptr %0, ptr %s, align 8
  %1 = load ptr, ptr %s, align 8
  %tobool = icmp ne ptr %1, null
  br i1 %tobool, label %if.end, label %if.then

if.then:                                          ; preds = %entry
  store i1 true, ptr %retval, align 1
  br label %return

if.end:                                           ; preds = %entry
  %2 = load ptr, ptr %s, align 8
  %state = getelementptr inbounds %struct.MigrationState, ptr %2, i32 0, i32 16
  %3 = load i32, ptr %state, align 8
  switch i32 %3, label %sw.epilog [
    i32 0, label %sw.bb
    i32 3, label %sw.bb
    i32 8, label %sw.bb
    i32 9, label %sw.bb
    i32 1, label %sw.bb1
    i32 2, label %sw.bb1
    i32 4, label %sw.bb1
    i32 5, label %sw.bb1
    i32 10, label %sw.bb1
    i32 11, label %sw.bb1
    i32 12, label %sw.bb1
    i32 13, label %sw.bb1
    i32 14, label %sw.bb2
  ]

sw.bb:                                            ; preds = %if.end, %if.end, %if.end, %if.end
  store i1 true, ptr %retval, align 1
  br label %return

sw.bb1:                                           ; preds = %if.end, %if.end, %if.end, %if.end, %if.end, %if.end, %if.end, %if.end
  store i1 false, ptr %retval, align 1
  br label %return

sw.bb2:                                           ; preds = %if.end
  br label %do.body

do.body:                                          ; preds = %sw.bb2
  call void @g_assertion_message_expr(ptr noundef null, ptr noundef @.str.2, i32 noundef 1550, ptr noundef @__func__.migration_is_idle, ptr noundef null) #16
  unreachable

do.end:                                           ; No predecessors!
  br label %sw.epilog

sw.epilog:                                        ; preds = %do.end, %if.end
  store i1 false, ptr %retval, align 1
  br label %return

return:                                           ; preds = %sw.epilog, %sw.bb1, %sw.bb, %if.then
  %4 = load i1, ptr %retval, align 1
  ret i1 %4
}

; Function Attrs: nounwind sspstrong uwtable
define internal i32 @add_blockers(ptr noundef %reasonp, ptr noundef %errp, i32 noundef %modes) #0 {
entry:
  %reasonp.addr = alloca ptr, align 8
  %errp.addr = alloca ptr, align 8
  %modes.addr = alloca i32, align 4
  %mode = alloca i32, align 4
  store ptr %reasonp, ptr %reasonp.addr, align 8
  store ptr %errp, ptr %errp.addr, align 8
  store i32 %modes, ptr %modes.addr, align 4
  store i32 0, ptr %mode, align 4
  br label %for.cond

for.cond:                                         ; preds = %for.inc, %entry
  %0 = load i32, ptr %mode, align 4
  %cmp = icmp ult i32 %0, 2
  br i1 %cmp, label %for.body, label %for.end

for.body:                                         ; preds = %for.cond
  %1 = load i32, ptr %modes.addr, align 4
  %conv = sext i32 %1 to i64
  %2 = load i32, ptr %mode, align 4
  %sh_prom = zext i32 %2 to i64
  %shl = shl i64 1, %sh_prom
  %and = and i64 %conv, %shl
  %tobool = icmp ne i64 %and, 0
  br i1 %tobool, label %if.then, label %if.end

if.then:                                          ; preds = %for.body
  %3 = load i32, ptr %mode, align 4
  %idxprom = zext i32 %3 to i64
  %arrayidx = getelementptr [2 x ptr], ptr @migration_blockers, i64 0, i64 %idxprom
  %4 = load ptr, ptr %arrayidx, align 8
  %5 = load ptr, ptr %reasonp.addr, align 8
  %6 = load ptr, ptr %5, align 8
  %call = call ptr @g_slist_prepend(ptr noundef %4, ptr noundef %6)
  %7 = load i32, ptr %mode, align 4
  %idxprom1 = zext i32 %7 to i64
  %arrayidx2 = getelementptr [2 x ptr], ptr @migration_blockers, i64 0, i64 %idxprom1
  store ptr %call, ptr %arrayidx2, align 8
  br label %if.end

if.end:                                           ; preds = %if.then, %for.body
  br label %for.inc

for.inc:                                          ; preds = %if.end
  %8 = load i32, ptr %mode, align 4
  %inc = add i32 %8, 1
  store i32 %inc, ptr %mode, align 4
  br label %for.cond, !llvm.loop !12

for.end:                                          ; preds = %for.cond
  ret i32 0
}

; Function Attrs: nounwind sspstrong uwtable
define internal zeroext i1 @is_busy(ptr noundef %reasonp, ptr noundef %errp) #0 {
entry:
  %retval = alloca i1, align 1
  %reasonp.addr = alloca ptr, align 8
  %errp.addr = alloca ptr, align 8
  %_auto_errp_prop = alloca %struct.ErrorPropagator, align 8
  %cleanup.dest.slot = alloca i32, align 4
  store ptr %reasonp, ptr %reasonp.addr, align 8
  store ptr %errp, ptr %errp.addr, align 8
  %local_err = getelementptr inbounds %struct.ErrorPropagator, ptr %_auto_errp_prop, i32 0, i32 0
  store ptr null, ptr %local_err, align 8
  %errp1 = getelementptr inbounds %struct.ErrorPropagator, ptr %_auto_errp_prop, i32 0, i32 1
  %0 = load ptr, ptr %errp.addr, align 8
  store ptr %0, ptr %errp1, align 8
  br label %do.body

do.body:                                          ; preds = %entry
  %1 = load ptr, ptr %errp.addr, align 8
  %tobool = icmp ne ptr %1, null
  br i1 %tobool, label %lor.lhs.false, label %if.then

lor.lhs.false:                                    ; preds = %do.body
  %2 = load ptr, ptr %errp.addr, align 8
  %cmp = icmp eq ptr %2, @error_fatal
  br i1 %cmp, label %if.then, label %if.end

if.then:                                          ; preds = %lor.lhs.false, %do.body
  %local_err2 = getelementptr inbounds %struct.ErrorPropagator, ptr %_auto_errp_prop, i32 0, i32 0
  store ptr %local_err2, ptr %errp.addr, align 8
  br label %if.end

if.end:                                           ; preds = %if.then, %lor.lhs.false
  br label %do.cond

do.cond:                                          ; preds = %if.end
  br label %do.end

do.end:                                           ; preds = %do.cond
  %call = call zeroext i1 @runstate_check(i32 noundef 10)
  br i1 %call, label %if.then5, label %lor.lhs.false3

lor.lhs.false3:                                   ; preds = %do.end
  %call4 = call zeroext i1 @migration_is_idle()
  br i1 %call4, label %if.end6, label %if.then5

if.then5:                                         ; preds = %lor.lhs.false3, %do.end
  %3 = load ptr, ptr %errp.addr, align 8
  %4 = load ptr, ptr %reasonp.addr, align 8
  %5 = load ptr, ptr %4, align 8
  call void (ptr, ptr, ptr, ...) @error_propagate_prepend(ptr noundef %3, ptr noundef %5, ptr noundef @.str.77)
  %6 = load ptr, ptr %reasonp.addr, align 8
  store ptr null, ptr %6, align 8
  store i1 true, ptr %retval, align 1
  store i32 1, ptr %cleanup.dest.slot, align 4
  br label %cleanup

if.end6:                                          ; preds = %lor.lhs.false3
  store i1 false, ptr %retval, align 1
  store i32 1, ptr %cleanup.dest.slot, align 4
  br label %cleanup

cleanup:                                          ; preds = %if.end6, %if.then5
  call void @glib_auto_cleanup_ErrorPropagator(ptr noundef %_auto_errp_prop)
  %7 = load i1, ptr %retval, align 1
  ret i1 %7
}

; Function Attrs: nounwind sspstrong uwtable
define dso_local i32 @migrate_add_blocker_internal(ptr noundef %reasonp, ptr noundef %errp) #0 {
entry:
  %retval = alloca i32, align 4
  %reasonp.addr = alloca ptr, align 8
  %errp.addr = alloca ptr, align 8
  %modes = alloca i32, align 4
  store ptr %reasonp, ptr %reasonp.addr, align 8
  store ptr %errp, ptr %errp.addr, align 8
  store i32 3, ptr %modes, align 4
  %0 = load ptr, ptr %reasonp.addr, align 8
  %1 = load ptr, ptr %errp.addr, align 8
  %call = call zeroext i1 @is_busy(ptr noundef %0, ptr noundef %1)
  br i1 %call, label %if.then, label %if.end

if.then:                                          ; preds = %entry
  store i32 -16, ptr %retval, align 4
  br label %return

if.end:                                           ; preds = %entry
  %2 = load ptr, ptr %reasonp.addr, align 8
  %3 = load ptr, ptr %errp.addr, align 8
  %4 = load i32, ptr %modes, align 4
  %call1 = call i32 @add_blockers(ptr noundef %2, ptr noundef %3, i32 noundef %4)
  store i32 %call1, ptr %retval, align 4
  br label %return

return:                                           ; preds = %if.end, %if.then
  %5 = load i32, ptr %retval, align 4
  ret i32 %5
}