; Function Attrs: nounwind sspstrong uwtable
define dso_local range(i32 -16, 1) i32 @migrate_add_blocker_internal(ptr noundef captures(none) %reasonp, ptr noundef %errp) local_unnamed_addr #0 {
entry:
  %_auto_errp_prop.i = alloca %struct.ErrorPropagator, align 8
  call void @llvm.lifetime.start.p0(i64 16, ptr nonnull %_auto_errp_prop.i)
  store ptr null, ptr %_auto_errp_prop.i, align 8
  %errp1.i = getelementptr inbounds nuw i8, ptr %_auto_errp_prop.i, i64 8
  store ptr %errp, ptr %errp1.i, align 8
  %tobool.i = icmp eq ptr %errp, null
  %cmp.i = icmp eq ptr %errp, @error_fatal
  %or.cond.i = or i1 %tobool.i, %cmp.i
  %spec.select.i = select i1 %or.cond.i, ptr %_auto_errp_prop.i, ptr %errp
  %call.i = tail call zeroext i1 @runstate_check(i32 noundef 10) #19
  br i1 %call.i, label %is_busy.exit, label %lor.lhs.false3.i

lor.lhs.false3.i:                                 ; preds = %entry
  %0 = load ptr, ptr @current_migration, align 8
  %tobool.not.i.i = icmp eq ptr %0, null
  br i1 %tobool.not.i.i, label %if.end, label %if.end.i.i

if.end.i.i:                                       ; preds = %lor.lhs.false3.i
  %state.i.i = getelementptr inbounds nuw i8, ptr %0, i64 776
  %1 = load i32, ptr %state.i.i, align 8
  switch i32 %1, label %is_busy.exit [
    i32 0, label %if.end
    i32 3, label %if.end
    i32 8, label %if.end
    i32 9, label %if.end
    i32 14, label %do.body.i.i
  ]

do.body.i.i:                                      ; preds = %if.end.i.i
  tail call void @g_assertion_message_expr(ptr noundef null, ptr noundef nonnull @.str.2, i32 noundef 1550, ptr noundef nonnull @__func__.migration_is_idle, ptr noundef null) #20
  unreachable

is_busy.exit:                                     ; preds = %entry, %if.end.i.i
  %2 = load ptr, ptr %reasonp, align 8
  call void (ptr, ptr, ptr, ...) @error_propagate_prepend(ptr noundef nonnull %spec.select.i, ptr noundef %2, ptr noundef nonnull @.str.77) #19
  store ptr null, ptr %reasonp, align 8
  %_auto_errp_prop.val.pre.i = load ptr, ptr %_auto_errp_prop.i, align 8
  %_auto_errp_prop.val5.pre.i = load ptr, ptr %errp1.i, align 8
  call void @error_propagate(ptr noundef %_auto_errp_prop.val5.pre.i, ptr noundef %_auto_errp_prop.val.pre.i) #19
  call void @llvm.lifetime.end.p0(i64 16, ptr nonnull %_auto_errp_prop.i)
  br label %return

if.end:                                           ; preds = %lor.lhs.false3.i, %if.end.i.i, %if.end.i.i, %if.end.i.i, %if.end.i.i
  tail call void @error_propagate(ptr noundef %errp, ptr noundef null) #19
  call void @llvm.lifetime.end.p0(i64 16, ptr nonnull %_auto_errp_prop.i)
  %3 = load ptr, ptr @migration_blockers, align 16
  %4 = load ptr, ptr %reasonp, align 8
  %call.i4 = tail call ptr @g_slist_prepend(ptr noundef %3, ptr noundef %4) #19
  store ptr %call.i4, ptr @migration_blockers, align 16
  %5 = load ptr, ptr getelementptr inbounds nuw (i8, ptr @migration_blockers, i64 8), align 8
  %6 = load ptr, ptr %reasonp, align 8
  %call.i4.c = tail call ptr @g_slist_prepend(ptr noundef %5, ptr noundef %6) #19
  store ptr %call.i4.c, ptr getelementptr inbounds nuw (i8, ptr @migration_blockers, i64 8), align 8
  br label %return

return:                                           ; preds = %if.end, %is_busy.exit
  %retval.0 = phi i32 [ -16, %is_busy.exit ], [ 0, %if.end ]
  ret i32 %retval.0
}